target datalayout = "e-m:e-p270:32:32-p271:32:32-p272:64:64-i64:64-i128:128-f80:128-n8:16:32:64-S128"
target triple = "x86_64-pc-linux-gnu"

%class.AbsSeq = type { ptr, i32, double, double, double, double, double }
%class.G1Policy = type { ptr, %class.G1Predictions, ptr, %class.G1RemSetTrackingPolicy, ptr, %class.G1OldGenAllocationTracker, ptr, ptr, double, i32, i32, i32, ptr, ptr, double, i32, %class.G1YoungGenSizer, i32, i64, i64, %class.G1ConcurrentStartToMixedTimeTracker, ptr, ptr, ptr, ptr, double, double, i32, i32, %class.AgeTable }
%class.G1Predictions = type { double }
%class.G1RemSetTrackingPolicy = type { i8 }
%class.G1OldGenAllocationTracker = type { i64, i64, i64, i64, i64 }
%class.G1YoungGenSizer = type { ptr, i32, i8, i32, i32 }
%class.G1ConcurrentStartToMixedTimeTracker = type { i8, double, double, double }
%class.AgeTable = type { [16 x i64], i8, [16 x ptr] }
%class.G1Analytics = type { ptr, %class.TruncatedSeq, %class.TruncatedSeq, %class.TruncatedSeq, %class.TruncatedSeq, double, %class.TruncatedSeq, %class.TruncatedSeq, %class.TruncatedSeq, %class.G1PhaseDependentSeq, %class.G1PhaseDependentSeq, %class.G1PhaseDependentSeq, %class.G1PhaseDependentSeq, %class.G1PhaseDependentSeq, %class.G1PhaseDependentSeq, %class.G1PhaseDependentSeq, %class.G1PhaseDependentSeq, %class.TruncatedSeq, %class.TruncatedSeq, %class.TruncatedSeq, %class.TruncatedSeq, %class.TruncatedSeq, double, double }
%class.G1PhaseDependentSeq = type { %class.TruncatedSeq, %class.TruncatedSeq }
%class.TruncatedSeq = type { %class.AbsSeq, ptr, i32, i32 }

; Function Attrs: mustprogress nounwind uwtable
define linkonce_odr hidden void @_ZN11G1Analytics32set_prev_collection_pause_end_msEd(ptr noundef nonnull align 8 dereferenceable(2048) %0, double noundef %1) #1 comdat align 2 {
  %3 = alloca ptr, align 8
  %4 = alloca double, align 8
  store ptr %0, ptr %3, align 8
  store double %1, ptr %4, align 8
  %5 = load ptr, ptr %3, align 8
  %6 = load double, ptr %4, align 8
  %7 = getelementptr inbounds %class.G1Analytics, ptr %5, i32 0, i32 5
  store double %6, ptr %7, align 8
  ret void
}

; Function Attrs: mustprogress nounwind uwtable
define linkonce_odr hidden void @_ZN11G1Analytics35append_prev_collection_pause_end_msEd(ptr noundef nonnull align 8 dereferenceable(2048) %0, double noundef %1) #1 comdat align 2 {
  %3 = alloca ptr, align 8
  %4 = alloca double, align 8
  store ptr %0, ptr %3, align 8
  store double %1, ptr %4, align 8
  %5 = load ptr, ptr %3, align 8
  %6 = load double, ptr %4, align 8
  %7 = getelementptr inbounds %class.G1Analytics, ptr %5, i32 0, i32 5
  %8 = load double, ptr %7, align 8
  %9 = fadd double %8, %6
  store double %9, ptr %7, align 8
  ret void
}

; Function Attrs: mustprogress nounwind uwtable
define hidden void @_ZN8G1Policy27update_gc_pause_time_ratiosE13G1GCPauseTypedd(ptr noundef nonnull align 8 dereferenceable(552) %0, i32 noundef %1, double noundef %2, double noundef %3) #1 align 2 {
  %5 = alloca ptr, align 8
  %6 = alloca i32, align 4
  %7 = alloca double, align 8
  %8 = alloca double, align 8
  %9 = alloca double, align 8
  %10 = alloca double, align 8
  store ptr %0, ptr %5, align 8
  store i32 %1, ptr %6, align 4
  store double %2, ptr %7, align 8
  store double %3, ptr %8, align 8
  %11 = load ptr, ptr %5, align 8
  %12 = load double, ptr %8, align 8
  %13 = load double, ptr %7, align 8
  %14 = fsub double %12, %13
  store double %14, ptr %9, align 8
  %15 = load double, ptr %9, align 8
  %16 = fmul double %15, 1.000000e+03
  store double %16, ptr %10, align 8
  %17 = getelementptr inbounds %class.G1Policy, ptr %11, i32 0, i32 2
  %18 = load ptr, ptr %17, align 8
  %19 = load double, ptr %8, align 8
  %20 = load double, ptr %10, align 8
  call void @_ZN11G1Analytics25compute_pause_time_ratiosEdd(ptr noundef nonnull align 8 dereferenceable(2048) %18, double noundef %19, double noundef %20)
  %21 = getelementptr inbounds %class.G1Policy, ptr %11, i32 0, i32 2
  %22 = load ptr, ptr %21, align 8
  %23 = load double, ptr %8, align 8
  %24 = load double, ptr %10, align 8
  call void @_ZN11G1Analytics22update_recent_gc_timesEdd(ptr noundef nonnull align 8 dereferenceable(2048) %22, double noundef %23, double noundef %24)
  %25 = load i32, ptr %6, align 4
  %26 = icmp eq i32 %25, 4
  br i1 %26, label %30, label %27

27:                                               ; preds = %4
  %28 = load i32, ptr %6, align 4
  %29 = icmp eq i32 %28, 5
  br i1 %29, label %30, label %34

30:                                               ; preds = %27, %4
  %31 = getelementptr inbounds %class.G1Policy, ptr %11, i32 0, i32 2
  %32 = load ptr, ptr %31, align 8
  %33 = load double, ptr %10, align 8
  call void @_ZN11G1Analytics35append_prev_collection_pause_end_msEd(ptr noundef nonnull align 8 dereferenceable(2048) %32, double noundef %33)
  br label %39

34:                                               ; preds = %27
  %35 = getelementptr inbounds %class.G1Policy, ptr %11, i32 0, i32 2
  %36 = load ptr, ptr %35, align 8
  %37 = load double, ptr %8, align 8
  %38 = fmul double %37, 1.000000e+03
  call void @_ZN11G1Analytics32set_prev_collection_pause_end_msEd(ptr noundef nonnull align 8 dereferenceable(2048) %36, double noundef %38)
  br label %39

39:                                               ; preds = %34, %30
  ret void
}