; Function Attrs: mustprogress nounwind uwtable
define hidden void @_ZN8G1Policy27update_gc_pause_time_ratiosE13G1GCPauseTypedd(ptr nocapture noundef nonnull readonly align 8 dereferenceable(552) %0, i32 noundef %1, double noundef %2, double noundef %3) local_unnamed_addr #1 align 2 {
  %5 = fsub double %3, %2
  %6 = fmul double %5, 1.000000e+03
  %7 = getelementptr inbounds i8, ptr %0, i64 16
  %8 = load ptr, ptr %7, align 8
  tail call void @_ZN11G1Analytics25compute_pause_time_ratiosEdd(ptr noundef nonnull align 8 dereferenceable(2048) %8, double noundef %3, double noundef %6) #18
  %9 = load ptr, ptr %7, align 8
  tail call void @_ZN11G1Analytics22update_recent_gc_timesEdd(ptr noundef nonnull align 8 dereferenceable(2048) %9, double noundef %3, double noundef %6) #18
  %10 = and i32 %1, -2
  %or.cond = icmp eq i32 %10, 4
  %11 = load ptr, ptr %7, align 8
  br i1 %or.cond, label %12, label %16

12:                                               ; preds = %4
  %13 = getelementptr inbounds i8, ptr %11, i64 296
  %14 = load double, ptr %13, align 8
  %15 = fadd double %6, %14
  store double %15, ptr %13, align 8
  br label %19

16:                                               ; preds = %4
  %17 = fmul double %3, 1.000000e+03
  %18 = getelementptr inbounds i8, ptr %11, i64 296
  store double %17, ptr %18, align 8
  br label %19

19:                                               ; preds = %16, %12
  ret void
}